target datalayout = "e-m:e-p270:32:32-p271:32:32-p272:64:64-i64:64-i128:128-f80:128-n8:16:32:64-S128"
target triple = "x86_64-pc-linux-gnu"

%struct.Sbl_Man_t_ = type { ptr, ptr, i32, i32, i32, i32, i32, i32, i32, i32, i32, i32, i32, i32, i32, i32, i32, i32, i32, i32, i32, i32, ptr, ptr, ptr, ptr, ptr, ptr, ptr, ptr, ptr, ptr, ptr, ptr, ptr, ptr, ptr, ptr, ptr, ptr, ptr, ptr, ptr, ptr, ptr, ptr, ptr, ptr, ptr, ptr, ptr, i64, i64, i64, i64, i64, i64, i64, i64, i64, i64 }
%struct.Vec_Int_t_ = type { i32, i32, ptr }
%struct.Vec_Wec_t_ = type { i32, i32, ptr }
%struct.Gia_Man_t_ = type { ptr, ptr, i32, i32, i32, i32, ptr, ptr, i32, i32, i32, ptr, ptr, %struct.Vec_Int_t_, %struct.Vec_Int_t_, i32, i32, i32, %struct.Vec_Int_t_, ptr, ptr, ptr, i32, i32, i32, i32, ptr, ptr, ptr, ptr, ptr, i32, i32, ptr, i32, ptr, ptr, ptr, ptr, ptr, ptr, ptr, ptr, ptr, ptr, ptr, ptr, ptr, ptr, ptr, ptr, ptr, ptr, %struct.Vec_Int_t_, %struct.Vec_Int_t_, ptr, ptr, ptr, ptr, ptr, ptr, ptr, ptr, ptr, ptr, ptr, ptr, ptr, ptr, ptr, ptr, ptr, ptr, ptr, ptr, ptr, i32, float, float, ptr, ptr, i32, ptr, ptr, ptr, ptr, ptr, ptr, ptr, ptr, ptr, ptr, ptr, ptr, ptr, ptr, ptr, i64, i64, ptr, ptr, i32, i32, i32, i32, i32, i32, i32, i32, i32, i32, i32, i32, ptr, ptr, ptr, ptr, ptr, ptr, ptr, ptr, i32, i32, i32, ptr, i32, i32, ptr, ptr, ptr, ptr, ptr, ptr, i32, i32, ptr, %struct.Vec_Int_t_, %struct.Vec_Int_t_, %struct.Vec_Int_t_, ptr, ptr, ptr }

@.str.33 = private unnamed_addr constant [65 x i8] c"Parameters: WinSize = %d AIG nodes.  Conf = %d.  DelayMax = %d.\0A\00", align 1
@.str.34 = private unnamed_addr constant [98 x i8] c"Tried = %d. Used = %d. HashWin = %d. SmallWin = %d. LargeWin = %d. IterOut = %d.  SAT runs = %d.\0A\00", align 1

; Function Attrs: nounwind uwtable
define internal i32 @Vec_IntSize(ptr noundef %0) #0 {
  %2 = alloca ptr, align 8
  store ptr %0, ptr %2, align 8
  %3 = load ptr, ptr %2, align 8
  %4 = getelementptr inbounds %struct.Vec_Int_t_, ptr %3, i32 0, i32 1
  %5 = load i32, ptr %4, align 4
  ret i32 %5
}

; Function Attrs: nounwind uwtable
define internal ptr @Vec_WecEntry(ptr noundef %0, i32 noundef %1) #0 {
  %3 = alloca ptr, align 8
  %4 = alloca i32, align 4
  store ptr %0, ptr %3, align 8
  store i32 %1, ptr %4, align 4
  %5 = load ptr, ptr %3, align 8
  %6 = getelementptr inbounds %struct.Vec_Wec_t_, ptr %5, i32 0, i32 2
  %7 = load ptr, ptr %6, align 8
  %8 = load i32, ptr %4, align 4
  %9 = sext i32 %8 to i64
  %10 = getelementptr inbounds %struct.Vec_Int_t_, ptr %7, i64 %9
  ret ptr %10
}

; Function Attrs: nounwind uwtable
define internal void @Vec_IntFreeP(ptr noundef %0) #0 {
  %2 = alloca ptr, align 8
  store ptr %0, ptr %2, align 8
  %3 = load ptr, ptr %2, align 8
  %4 = load ptr, ptr %3, align 8
  %5 = icmp eq ptr %4, null
  br i1 %5, label %6, label %7

6:                                                ; preds = %1
  br label %32

7:                                                ; preds = %1
  %8 = load ptr, ptr %2, align 8
  %9 = load ptr, ptr %8, align 8
  %10 = getelementptr inbounds %struct.Vec_Int_t_, ptr %9, i32 0, i32 2
  %11 = load ptr, ptr %10, align 8
  %12 = icmp ne ptr %11, null
  br i1 %12, label %13, label %21

13:                                               ; preds = %7
  %14 = load ptr, ptr %2, align 8
  %15 = load ptr, ptr %14, align 8
  %16 = getelementptr inbounds %struct.Vec_Int_t_, ptr %15, i32 0, i32 2
  %17 = load ptr, ptr %16, align 8
  call void @free(ptr noundef %17) #12
  %18 = load ptr, ptr %2, align 8
  %19 = load ptr, ptr %18, align 8
  %20 = getelementptr inbounds %struct.Vec_Int_t_, ptr %19, i32 0, i32 2
  store ptr null, ptr %20, align 8
  br label %22

21:                                               ; preds = %7
  br label %22

22:                                               ; preds = %21, %13
  %23 = load ptr, ptr %2, align 8
  %24 = load ptr, ptr %23, align 8
  %25 = icmp ne ptr %24, null
  br i1 %25, label %26, label %30

26:                                               ; preds = %22
  %27 = load ptr, ptr %2, align 8
  %28 = load ptr, ptr %27, align 8
  call void @free(ptr noundef %28) #12
  %29 = load ptr, ptr %2, align 8
  store ptr null, ptr %29, align 8
  br label %31

30:                                               ; preds = %22
  br label %31

31:                                               ; preds = %30, %26
  br label %32

32:                                               ; preds = %31, %6
  ret void
}

; Function Attrs: nounwind uwtable
define internal i32 @Gia_ObjIsLut2(ptr noundef %0, i32 noundef %1) #0 {
  %3 = alloca ptr, align 8
  %4 = alloca i32, align 4
  store ptr %0, ptr %3, align 8
  store i32 %1, ptr %4, align 4
  %5 = load ptr, ptr %3, align 8
  %6 = getelementptr inbounds %struct.Gia_Man_t_, ptr %5, i32 0, i32 38
  %7 = load ptr, ptr %6, align 8
  %8 = load i32, ptr %4, align 4
  %9 = call ptr @Vec_WecEntry(ptr noundef %7, i32 noundef %8)
  %10 = call i32 @Vec_IntSize(ptr noundef %9)
  %11 = icmp ne i32 %10, 0
  %12 = zext i1 %11 to i32
  ret i32 %12
}

; Function Attrs: nounwind uwtable
define internal i32 @Gia_ManObjNum(ptr noundef %0) #0 {
  %2 = alloca ptr, align 8
  store ptr %0, ptr %2, align 8
  %3 = load ptr, ptr %2, align 8
  %4 = getelementptr inbounds %struct.Gia_Man_t_, ptr %3, i32 0, i32 4
  %5 = load i32, ptr %4, align 8
  ret i32 %5
}

; Function Attrs: nounwind uwtable
define void @Gia_ManLutSat(ptr noundef %0, i32 noundef %1, i32 noundef %2, i32 noundef %3, i32 noundef %4, i32 noundef %5, i32 noundef %6, i32 noundef %7, i32 noundef %8, i32 noundef %9, i32 noundef %10) #0 {
  %12 = alloca ptr, align 8
  %13 = alloca i32, align 4
  %14 = alloca i32, align 4
  %15 = alloca i32, align 4
  %16 = alloca i32, align 4
  %17 = alloca i32, align 4
  %18 = alloca i32, align 4
  %19 = alloca i32, align 4
  %20 = alloca i32, align 4
  %21 = alloca i32, align 4
  %22 = alloca i32, align 4
  %23 = alloca i32, align 4
  %24 = alloca i32, align 4
  %25 = alloca ptr, align 8
  store ptr %0, ptr %12, align 8
  store i32 %1, ptr %13, align 4
  store i32 %2, ptr %14, align 4
  store i32 %3, ptr %15, align 4
  store i32 %4, ptr %16, align 4
  store i32 %5, ptr %17, align 4
  store i32 %6, ptr %18, align 4
  store i32 %7, ptr %19, align 4
  store i32 %8, ptr %20, align 4
  store i32 %9, ptr %21, align 4
  store i32 %10, ptr %22, align 4
  store i32 0, ptr %24, align 4
  %26 = load ptr, ptr %12, align 8
  %27 = load i32, ptr %14, align 4
  %28 = call ptr @Sbl_ManAlloc(ptr noundef %26, i32 noundef %27)
  store ptr %28, ptr %25, align 8
  %29 = load i32, ptr %13, align 4
  %30 = load ptr, ptr %25, align 8
  %31 = getelementptr inbounds %struct.Sbl_Man_t_, ptr %30, i32 0, i32 13
  store i32 %29, ptr %31, align 4
  %32 = load i32, ptr %16, align 4
  %33 = load ptr, ptr %25, align 8
  %34 = getelementptr inbounds %struct.Sbl_Man_t_, ptr %33, i32 0, i32 14
  store i32 %32, ptr %34, align 8
  %35 = load i32, ptr %17, align 4
  %36 = load ptr, ptr %25, align 8
  %37 = getelementptr inbounds %struct.Sbl_Man_t_, ptr %36, i32 0, i32 15
  store i32 %35, ptr %37, align 4
  %38 = load i32, ptr %18, align 4
  %39 = load ptr, ptr %25, align 8
  %40 = getelementptr inbounds %struct.Sbl_Man_t_, ptr %39, i32 0, i32 16
  store i32 %38, ptr %40, align 8
  %41 = load i32, ptr %19, align 4
  %42 = load ptr, ptr %25, align 8
  %43 = getelementptr inbounds %struct.Sbl_Man_t_, ptr %42, i32 0, i32 17
  store i32 %41, ptr %43, align 4
  %44 = load i32, ptr %20, align 4
  %45 = load ptr, ptr %25, align 8
  %46 = getelementptr inbounds %struct.Sbl_Man_t_, ptr %45, i32 0, i32 18
  store i32 %44, ptr %46, align 8
  %47 = load i32, ptr %21, align 4
  %48 = load i32, ptr %22, align 4
  %49 = or i32 %47, %48
  %50 = load ptr, ptr %25, align 8
  %51 = getelementptr inbounds %struct.Sbl_Man_t_, ptr %50, i32 0, i32 19
  store i32 %49, ptr %51, align 4
  %52 = load i32, ptr %22, align 4
  %53 = load ptr, ptr %25, align 8
  %54 = getelementptr inbounds %struct.Sbl_Man_t_, ptr %53, i32 0, i32 20
  store i32 %52, ptr %54, align 8
  %55 = load ptr, ptr %25, align 8
  %56 = getelementptr inbounds %struct.Sbl_Man_t_, ptr %55, i32 0, i32 19
  %57 = load i32, ptr %56, align 4
  %58 = icmp ne i32 %57, 0
  br i1 %58, label %59, label %70

59:                                               ; preds = %11
  %60 = load ptr, ptr %25, align 8
  %61 = getelementptr inbounds %struct.Sbl_Man_t_, ptr %60, i32 0, i32 2
  %62 = load i32, ptr %61, align 8
  %63 = load ptr, ptr %25, align 8
  %64 = getelementptr inbounds %struct.Sbl_Man_t_, ptr %63, i32 0, i32 14
  %65 = load i32, ptr %64, align 8
  %66 = load ptr, ptr %25, align 8
  %67 = getelementptr inbounds %struct.Sbl_Man_t_, ptr %66, i32 0, i32 15
  %68 = load i32, ptr %67, align 4
  %69 = call i32 (ptr, ...) @printf(ptr noundef @.str.33, i32 noundef %62, i32 noundef %65, i32 noundef %68)
  br label %70

70:                                               ; preds = %59, %11
  %71 = load i32, ptr %19, align 4
  %72 = icmp ne i32 %71, 0
  br i1 %72, label %73, label %88

73:                                               ; preds = %70
  %74 = load ptr, ptr %12, align 8
  %75 = getelementptr inbounds %struct.Gia_Man_t_, ptr %74, i32 0, i32 48
  %76 = load ptr, ptr %75, align 8
  %77 = icmp ne ptr %76, null
  br i1 %77, label %78, label %88

78:                                               ; preds = %73
  %79 = load ptr, ptr %25, align 8
  %80 = getelementptr inbounds %struct.Sbl_Man_t_, ptr %79, i32 0, i32 15
  %81 = load i32, ptr %80, align 4
  %82 = icmp eq i32 %81, 0
  br i1 %82, label %83, label %88

83:                                               ; preds = %78
  %84 = load ptr, ptr %12, align 8
  %85 = call i32 @Gia_ManEvalEdgeDelay(ptr noundef %84)
  %86 = load ptr, ptr %25, align 8
  %87 = getelementptr inbounds %struct.Sbl_Man_t_, ptr %86, i32 0, i32 15
  store i32 %85, ptr %87, align 4
  br label %88

88:                                               ; preds = %83, %78, %73, %70
  %89 = load ptr, ptr %12, align 8
  %90 = load i32, ptr %14, align 4
  %91 = load i32, ptr %20, align 4
  call void @Gia_ManComputeOneWinStart(ptr noundef %89, i32 noundef %90, i32 noundef %91)
  store i32 1, ptr %23, align 4
  br label %92

92:                                               ; preds = %117, %88
  %93 = load i32, ptr %23, align 4
  %94 = load ptr, ptr %12, align 8
  %95 = call i32 @Gia_ManObjNum(ptr noundef %94)
  %96 = icmp slt i32 %93, %95
  br i1 %96, label %97, label %120

97:                                               ; preds = %92
  %98 = load ptr, ptr %12, align 8
  %99 = load i32, ptr %23, align 4
  %100 = call i32 @Gia_ObjIsLut2(ptr noundef %98, i32 noundef %99)
  %101 = icmp ne i32 %100, 0
  br i1 %101, label %103, label %102

102:                                              ; preds = %97
  br label %116

103:                                              ; preds = %97
  %104 = load ptr, ptr %25, align 8
  %105 = load i32, ptr %23, align 4
  %106 = call i32 @Sbl_ManTestSat(ptr noundef %104, i32 noundef %105)
  %107 = icmp ne i32 %106, 2
  br i1 %107, label %108, label %109

108:                                              ; preds = %103
  br label %117

109:                                              ; preds = %103
  %110 = load i32, ptr %24, align 4
  %111 = add nsw i32 %110, 1
  store i32 %111, ptr %24, align 4
  %112 = load i32, ptr %15, align 4
  %113 = icmp eq i32 %111, %112
  br i1 %113, label %114, label %115

114:                                              ; preds = %109
  br label %120

115:                                              ; preds = %109
  br label %116

116:                                              ; preds = %115, %102
  br label %117

117:                                              ; preds = %116, %108
  %118 = load i32, ptr %23, align 4
  %119 = add nsw i32 %118, 1
  store i32 %119, ptr %23, align 4
  br label %92, !llvm.loop !66

120:                                              ; preds = %114, %92
  %121 = load ptr, ptr %12, align 8
  %122 = call i32 @Gia_ManComputeOneWin(ptr noundef %121, i32 noundef -1, ptr noundef null, ptr noundef null, ptr noundef null, ptr noundef null)
  %123 = load ptr, ptr %25, align 8
  %124 = getelementptr inbounds %struct.Sbl_Man_t_, ptr %123, i32 0, i32 19
  %125 = load i32, ptr %124, align 4
  %126 = icmp ne i32 %125, 0
  br i1 %126, label %127, label %150

127:                                              ; preds = %120
  %128 = load ptr, ptr %25, align 8
  %129 = getelementptr inbounds %struct.Sbl_Man_t_, ptr %128, i32 0, i32 6
  %130 = load i32, ptr %129, align 8
  %131 = load ptr, ptr %25, align 8
  %132 = getelementptr inbounds %struct.Sbl_Man_t_, ptr %131, i32 0, i32 7
  %133 = load i32, ptr %132, align 4
  %134 = load ptr, ptr %25, align 8
  %135 = getelementptr inbounds %struct.Sbl_Man_t_, ptr %134, i32 0, i32 9
  %136 = load i32, ptr %135, align 4
  %137 = load ptr, ptr %25, align 8
  %138 = getelementptr inbounds %struct.Sbl_Man_t_, ptr %137, i32 0, i32 10
  %139 = load i32, ptr %138, align 8
  %140 = load ptr, ptr %25, align 8
  %141 = getelementptr inbounds %struct.Sbl_Man_t_, ptr %140, i32 0, i32 11
  %142 = load i32, ptr %141, align 4
  %143 = load ptr, ptr %25, align 8
  %144 = getelementptr inbounds %struct.Sbl_Man_t_, ptr %143, i32 0, i32 12
  %145 = load i32, ptr %144, align 8
  %146 = load ptr, ptr %25, align 8
  %147 = getelementptr inbounds %struct.Sbl_Man_t_, ptr %146, i32 0, i32 8
  %148 = load i32, ptr %147, align 8
  %149 = call i32 (ptr, ...) @printf(ptr noundef @.str.34, i32 noundef %130, i32 noundef %133, i32 noundef %136, i32 noundef %139, i32 noundef %142, i32 noundef %145, i32 noundef %148)
  br label %150

150:                                              ; preds = %127, %120
  %151 = load ptr, ptr %25, align 8
  %152 = getelementptr inbounds %struct.Sbl_Man_t_, ptr %151, i32 0, i32 19
  %153 = load i32, ptr %152, align 4
  %154 = icmp ne i32 %153, 0
  br i1 %154, label %155, label %157

155:                                              ; preds = %150
  %156 = load ptr, ptr %25, align 8
  call void @Sbl_ManPrintRuntime(ptr noundef %156)
  br label %157

157:                                              ; preds = %155, %150
  %158 = load ptr, ptr %25, align 8
  call void @Sbl_ManStop(ptr noundef %158)
  %159 = load ptr, ptr %12, align 8
  %160 = getelementptr inbounds %struct.Gia_Man_t_, ptr %159, i32 0, i32 42
  call void @Vec_IntFreeP(ptr noundef %160)
  ret void
}