; Function Attrs: nounwind uwtable
define void @Gia_ManLutSat(ptr noundef %0, i32 noundef %1, i32 noundef %2, i32 noundef %3, i32 noundef %4, i32 noundef %5, i32 noundef %6, i32 noundef %7, i32 noundef %8, i32 noundef %9, i32 noundef %10) local_unnamed_addr #0 {
  %12 = tail call ptr @Sbl_ManAlloc(ptr noundef %0, i32 noundef %2)
  %13 = getelementptr inbounds nuw i8, ptr %12, i64 60
  store i32 %1, ptr %13, align 4
  %14 = getelementptr inbounds nuw i8, ptr %12, i64 64
  store i32 %4, ptr %14, align 8
  %15 = getelementptr inbounds nuw i8, ptr %12, i64 68
  store i32 %5, ptr %15, align 4
  %16 = getelementptr inbounds nuw i8, ptr %12, i64 72
  store i32 %6, ptr %16, align 8
  %17 = getelementptr inbounds nuw i8, ptr %12, i64 76
  store i32 %7, ptr %17, align 4
  %18 = getelementptr inbounds nuw i8, ptr %12, i64 80
  store i32 %8, ptr %18, align 8
  %19 = or i32 %10, %9
  %20 = getelementptr inbounds nuw i8, ptr %12, i64 84
  store i32 %19, ptr %20, align 4
  %21 = getelementptr inbounds nuw i8, ptr %12, i64 88
  store i32 %10, ptr %21, align 8
  %.not = icmp eq i32 %19, 0
  br i1 %.not, label %26, label %22

22:                                               ; preds = %11
  %23 = getelementptr inbounds nuw i8, ptr %12, i64 16
  %24 = load i32, ptr %23, align 8
  %25 = tail call i32 (ptr, ...) @printf(ptr noundef nonnull dereferenceable(1) @.str.33, i32 noundef %24, i32 noundef %4, i32 noundef %5)
  br label %26

26:                                               ; preds = %22, %11
  %.not54 = icmp eq i32 %7, 0
  br i1 %.not54, label %35, label %27

27:                                               ; preds = %26
  %28 = getelementptr inbounds nuw i8, ptr %0, i64 352
  %29 = load ptr, ptr %28, align 8
  %.not55 = icmp eq ptr %29, null
  br i1 %.not55, label %35, label %30

30:                                               ; preds = %27
  %31 = load i32, ptr %15, align 4
  %32 = icmp eq i32 %31, 0
  br i1 %32, label %33, label %35

33:                                               ; preds = %30
  %34 = tail call i32 @Gia_ManEvalEdgeDelay(ptr noundef nonnull %0) #18
  store i32 %34, ptr %15, align 4
  br label %35

35:                                               ; preds = %33, %30, %27, %26
  tail call void @Gia_ManComputeOneWinStart(ptr noundef %0, i32 noundef %2, i32 noundef %8) #18
  %36 = getelementptr i8, ptr %0, i64 24
  %.val63 = load i32, ptr %36, align 8
  %37 = icmp sgt i32 %.val63, 1
  br i1 %37, label %.lr.ph, label %._crit_edge

.lr.ph:                                           ; preds = %35
  %38 = getelementptr i8, ptr %0, i64 272
  br label %39

39:                                               ; preds = %.lr.ph, %48
  %indvars.iv = phi i64 [ 1, %.lr.ph ], [ %indvars.iv.next, %48 ]
  %.05264 = phi i32 [ 0, %.lr.ph ], [ %.1, %48 ]
  %.val60 = load ptr, ptr %38, align 8
  %40 = getelementptr i8, ptr %.val60, i64 8
  %.val60.val = load ptr, ptr %40, align 8
  %41 = getelementptr %struct.Vec_Int_t_, ptr %.val60.val, i64 %indvars.iv, i32 1
  %.val1.i = load i32, ptr %41, align 4
  %.not62 = icmp eq i32 %.val1.i, 0
  br i1 %.not62, label %48, label %42

42:                                               ; preds = %39
  %43 = trunc nuw nsw i64 %indvars.iv to i32
  %44 = tail call i32 @Sbl_ManTestSat(ptr noundef %12, i32 noundef %43)
  %.not57 = icmp eq i32 %44, 2
  br i1 %.not57, label %45, label %48

45:                                               ; preds = %42
  %46 = add nsw i32 %.05264, 1
  %47 = icmp eq i32 %46, %3
  br i1 %47, label %._crit_edge, label %48

48:                                               ; preds = %39, %45, %42
  %.1 = phi i32 [ %.05264, %42 ], [ %46, %45 ], [ %.05264, %39 ]
  %indvars.iv.next = add nuw nsw i64 %indvars.iv, 1
  %.val = load i32, ptr %36, align 8
  %49 = sext i32 %.val to i64
  %50 = icmp slt i64 %indvars.iv.next, %49
  br i1 %50, label %39, label %._crit_edge, !llvm.loop !75

._crit_edge:                                      ; preds = %48, %45, %35
  %51 = tail call i32 @Gia_ManComputeOneWin(ptr noundef nonnull %0, i32 noundef -1, ptr noundef null, ptr noundef null, ptr noundef null, ptr noundef null) #18
  %52 = load i32, ptr %20, align 4
  %.not58 = icmp eq i32 %52, 0
  br i1 %.not58, label %.thread, label %53

53:                                               ; preds = %._crit_edge
  %54 = getelementptr inbounds nuw i8, ptr %12, i64 32
  %55 = load i32, ptr %54, align 8
  %56 = getelementptr inbounds nuw i8, ptr %12, i64 36
  %57 = load i32, ptr %56, align 4
  %58 = getelementptr inbounds nuw i8, ptr %12, i64 44
  %59 = load i32, ptr %58, align 4
  %60 = getelementptr inbounds nuw i8, ptr %12, i64 48
  %61 = load i32, ptr %60, align 8
  %62 = getelementptr inbounds nuw i8, ptr %12, i64 52
  %63 = load i32, ptr %62, align 4
  %64 = getelementptr inbounds nuw i8, ptr %12, i64 56
  %65 = load i32, ptr %64, align 8
  %66 = getelementptr inbounds nuw i8, ptr %12, i64 40
  %67 = load i32, ptr %66, align 8
  %68 = tail call i32 (ptr, ...) @printf(ptr noundef nonnull dereferenceable(1) @.str.34, i32 noundef %55, i32 noundef %57, i32 noundef %59, i32 noundef %61, i32 noundef %63, i32 noundef %65, i32 noundef %67)
  %.pr = load i32, ptr %20, align 4
  %.not59 = icmp eq i32 %.pr, 0
  br i1 %.not59, label %.thread, label %69

69:                                               ; preds = %53
  tail call void @Sbl_ManPrintRuntime(ptr noundef nonnull %12)
  br label %.thread

.thread:                                          ; preds = %._crit_edge, %69, %53
  tail call void @Sbl_ManStop(ptr noundef nonnull %12)
  %70 = getelementptr inbounds nuw i8, ptr %0, i64 304
  %71 = load ptr, ptr %70, align 8
  %72 = icmp eq ptr %71, null
  br i1 %72, label %Vec_IntFreeP.exit, label %73

73:                                               ; preds = %.thread
  %74 = getelementptr inbounds nuw i8, ptr %71, i64 8
  %75 = load ptr, ptr %74, align 8
  %.not.i = icmp eq ptr %75, null
  br i1 %.not.i, label %.thread.i, label %76

76:                                               ; preds = %73
  tail call void @free(ptr noundef nonnull %75) #18
  %77 = load ptr, ptr %70, align 8
  %78 = getelementptr inbounds nuw i8, ptr %77, i64 8
  store ptr null, ptr %78, align 8
  %.pre.i = load ptr, ptr %70, align 8
  %.not9.i = icmp eq ptr %.pre.i, null
  br i1 %.not9.i, label %Vec_IntFreeP.exit, label %.thread.i

.thread.i:                                        ; preds = %76, %73
  %79 = phi ptr [ %.pre.i, %76 ], [ %71, %73 ]
  tail call void @free(ptr noundef nonnull %79) #18
  store ptr null, ptr %70, align 8
  br label %Vec_IntFreeP.exit

Vec_IntFreeP.exit:                                ; preds = %.thread, %76, %.thread.i
  ret void
}